target datalayout = "e-m:e-p270:32:32-p271:32:32-p272:64:64-i64:64-i128:128-f80:128-n8:16:32:64-S128"
target triple = "x86_64-pc-linux-gnu"

%struct.lxb_html_element = type { %struct.lxb_dom_element, ptr, ptr }
%struct.lxb_dom_element = type { %struct.lxb_dom_node, i64, i64, ptr, ptr, ptr, ptr, ptr, i32 }
%struct.lxb_dom_node = type { %struct.lxb_dom_event_target, i64, i64, i64, ptr, ptr, ptr, ptr, ptr, ptr, ptr, i32, i64 }
%struct.lxb_dom_event_target = type { ptr }
%struct.lxb_html_tree = type { ptr, ptr, ptr, ptr, ptr, ptr, ptr, %struct.lxb_html_tree_pending_table_t, ptr, i8, i8, i8, i8, i8, i8, ptr, ptr, ptr, i32, i64 }
%struct.lxb_html_tree_pending_table_t = type { ptr, i8 }
%struct.lexbor_array_t = type { ptr, i64, i64 }
%struct.lxb_html_token_t = type { ptr, ptr, i64, i64, ptr, ptr, ptr, ptr, ptr, i64, i64, i32 }

@lxb_html_tree_active_formatting_marker_static = internal global %struct.lxb_html_element zeroinitializer, align 8

; Function Attrs: inlinehint nounwind uwtable
define internal ptr @lxb_html_tree_insert_html_element(ptr noundef %0, ptr noundef %1) #5 {
  %3 = alloca ptr, align 8
  %4 = alloca ptr, align 8
  store ptr %0, ptr %3, align 8, !tbaa !4
  store ptr %1, ptr %4, align 8, !tbaa !21
  %5 = load ptr, ptr %3, align 8, !tbaa !4
  %6 = load ptr, ptr %4, align 8, !tbaa !21
  %7 = call ptr @lxb_html_tree_insert_foreign_element(ptr noundef %5, ptr noundef %6, i64 noundef 2)
  ret ptr %7
}

; Function Attrs: nounwind uwtable
define hidden i32 @lxb_html_tree_active_formatting_reconstruct_elements(ptr noundef %0) #0 {
  %2 = alloca i32, align 4
  %3 = alloca ptr, align 8
  %4 = alloca ptr, align 8
  %5 = alloca ptr, align 8
  %6 = alloca i64, align 8
  %7 = alloca i32, align 4
  %8 = alloca ptr, align 8
  %9 = alloca ptr, align 8
  %10 = alloca %struct.lxb_html_token_t, align 8
  store ptr %0, ptr %3, align 8, !tbaa !4
  %11 = load ptr, ptr %3, align 8, !tbaa !4
  %12 = getelementptr inbounds nuw %struct.lxb_html_tree, ptr %11, i32 0, i32 5
  %13 = load ptr, ptr %12, align 8, !tbaa !9
  %14 = getelementptr inbounds nuw %struct.lexbor_array_t, ptr %13, i32 0, i32 2
  %15 = load i64, ptr %14, align 8, !tbaa !22
  %16 = icmp eq i64 %15, 0
  br i1 %16, label %17, label %18

17:                                               ; preds = %1
  store i32 0, ptr %2, align 4
  br label %98

18:                                               ; preds = %1
  call void @llvm.lifetime.start.p0(i64 8, ptr %4) #6
  %19 = load ptr, ptr %3, align 8, !tbaa !4
  %20 = getelementptr inbounds nuw %struct.lxb_html_tree, ptr %19, i32 0, i32 5
  %21 = load ptr, ptr %20, align 8, !tbaa !9
  store ptr %21, ptr %4, align 8, !tbaa !21
  call void @llvm.lifetime.start.p0(i64 8, ptr %5) #6
  %22 = load ptr, ptr %4, align 8, !tbaa !21
  %23 = getelementptr inbounds nuw %struct.lexbor_array_t, ptr %22, i32 0, i32 0
  %24 = load ptr, ptr %23, align 8, !tbaa !19
  store ptr %24, ptr %5, align 8, !tbaa !21
  call void @llvm.lifetime.start.p0(i64 8, ptr %6) #6
  %25 = load ptr, ptr %4, align 8, !tbaa !21
  %26 = getelementptr inbounds nuw %struct.lexbor_array_t, ptr %25, i32 0, i32 2
  %27 = load i64, ptr %26, align 8, !tbaa !22
  %28 = sub i64 %27, 1
  store i64 %28, ptr %6, align 8, !tbaa !24
  %29 = load ptr, ptr %5, align 8, !tbaa !21
  %30 = load i64, ptr %6, align 8, !tbaa !24
  %31 = getelementptr inbounds nuw ptr, ptr %29, i64 %30
  %32 = load ptr, ptr %31, align 8, !tbaa !21
  %33 = icmp eq ptr %32, @lxb_html_tree_active_formatting_marker_static
  br i1 %33, label %41, label %34

34:                                               ; preds = %18
  %35 = load ptr, ptr %3, align 8, !tbaa !4
  %36 = load ptr, ptr %5, align 8, !tbaa !21
  %37 = load i64, ptr %6, align 8, !tbaa !24
  %38 = getelementptr inbounds nuw ptr, ptr %36, i64 %37
  %39 = load ptr, ptr %38, align 8, !tbaa !21
  %40 = call zeroext i1 @lxb_html_tree_open_elements_find_by_node_reverse(ptr noundef %35, ptr noundef %39, ptr noundef null)
  br i1 %40, label %41, label %42

41:                                               ; preds = %34, %18
  store i32 0, ptr %2, align 4
  store i32 1, ptr %7, align 4
  br label %97

42:                                               ; preds = %34
  br label %43

43:                                               ; preds = %64, %42
  %44 = load i64, ptr %6, align 8, !tbaa !24
  %45 = icmp ne i64 %44, 0
  br i1 %45, label %46, label %65

46:                                               ; preds = %43
  %47 = load i64, ptr %6, align 8, !tbaa !24
  %48 = add i64 %47, -1
  store i64 %48, ptr %6, align 8, !tbaa !24
  %49 = load ptr, ptr %5, align 8, !tbaa !21
  %50 = load i64, ptr %6, align 8, !tbaa !24
  %51 = getelementptr inbounds nuw ptr, ptr %49, i64 %50
  %52 = load ptr, ptr %51, align 8, !tbaa !21
  %53 = icmp eq ptr %52, @lxb_html_tree_active_formatting_marker_static
  br i1 %53, label %61, label %54

54:                                               ; preds = %46
  %55 = load ptr, ptr %3, align 8, !tbaa !4
  %56 = load ptr, ptr %5, align 8, !tbaa !21
  %57 = load i64, ptr %6, align 8, !tbaa !24
  %58 = getelementptr inbounds nuw ptr, ptr %56, i64 %57
  %59 = load ptr, ptr %58, align 8, !tbaa !21
  %60 = call zeroext i1 @lxb_html_tree_open_elements_find_by_node_reverse(ptr noundef %55, ptr noundef %59, ptr noundef null)
  br i1 %60, label %61, label %64

61:                                               ; preds = %54, %46
  %62 = load i64, ptr %6, align 8, !tbaa !24
  %63 = add i64 %62, 1
  store i64 %63, ptr %6, align 8, !tbaa !24
  br label %65

64:                                               ; preds = %54
  br label %43

65:                                               ; preds = %61, %43
  call void @llvm.lifetime.start.p0(i64 8, ptr %8) #6
  call void @llvm.lifetime.start.p0(i64 8, ptr %9) #6
  call void @llvm.lifetime.start.p0(i64 96, ptr %10) #6
  call void @llvm.memset.p0.i64(ptr align 8 %10, i8 0, i64 96, i1 false)
  br label %66

66:                                               ; preds = %88, %65
  %67 = load i64, ptr %6, align 8, !tbaa !24
  %68 = load ptr, ptr %4, align 8, !tbaa !21
  %69 = getelementptr inbounds nuw %struct.lexbor_array_t, ptr %68, i32 0, i32 2
  %70 = load i64, ptr %69, align 8, !tbaa !22
  %71 = icmp ult i64 %67, %70
  br i1 %71, label %72, label %95

72:                                               ; preds = %66
  %73 = load ptr, ptr %5, align 8, !tbaa !21
  %74 = load i64, ptr %6, align 8, !tbaa !24
  %75 = getelementptr inbounds nuw ptr, ptr %73, i64 %74
  %76 = load ptr, ptr %75, align 8, !tbaa !21
  store ptr %76, ptr %8, align 8, !tbaa !23
  %77 = load ptr, ptr %8, align 8, !tbaa !23
  %78 = getelementptr inbounds nuw %struct.lxb_dom_node, ptr %77, i32 0, i32 1
  %79 = load i64, ptr %78, align 8, !tbaa !27
  %80 = getelementptr inbounds nuw %struct.lxb_html_token_t, ptr %10, i32 0, i32 10
  store i64 %79, ptr %80, align 8, !tbaa !31
  %81 = load ptr, ptr %8, align 8, !tbaa !23
  %82 = getelementptr inbounds nuw %struct.lxb_html_token_t, ptr %10, i32 0, i32 8
  store ptr %81, ptr %82, align 8, !tbaa !35
  %83 = load ptr, ptr %3, align 8, !tbaa !4
  %84 = call ptr @lxb_html_tree_insert_html_element(ptr noundef %83, ptr noundef %10)
  store ptr %84, ptr %9, align 8, !tbaa !36
  %85 = load ptr, ptr %9, align 8, !tbaa !36
  %86 = icmp eq ptr %85, null
  br i1 %86, label %87, label %88

87:                                               ; preds = %72
  store i32 2, ptr %2, align 4
  store i32 1, ptr %7, align 4
  br label %96

88:                                               ; preds = %72
  %89 = load ptr, ptr %9, align 8, !tbaa !36
  %90 = load ptr, ptr %5, align 8, !tbaa !21
  %91 = load i64, ptr %6, align 8, !tbaa !24
  %92 = getelementptr inbounds nuw ptr, ptr %90, i64 %91
  store ptr %89, ptr %92, align 8, !tbaa !21
  %93 = load i64, ptr %6, align 8, !tbaa !24
  %94 = add i64 %93, 1
  store i64 %94, ptr %6, align 8, !tbaa !24
  br label %66

95:                                               ; preds = %66
  store i32 0, ptr %2, align 4
  store i32 1, ptr %7, align 4
  br label %96

96:                                               ; preds = %95, %87
  call void @llvm.lifetime.end.p0(i64 96, ptr %10) #6
  call void @llvm.lifetime.end.p0(i64 8, ptr %9) #6
  call void @llvm.lifetime.end.p0(i64 8, ptr %8) #6
  br label %97

97:                                               ; preds = %96, %41
  call void @llvm.lifetime.end.p0(i64 8, ptr %6) #6
  call void @llvm.lifetime.end.p0(i64 8, ptr %5) #6
  call void @llvm.lifetime.end.p0(i64 8, ptr %4) #6
  br label %98

98:                                               ; preds = %97, %17
  %99 = load i32, ptr %2, align 4
  ret i32 %99
}