; Function Attrs: nounwind uwtable
define hidden range(i32 0, 3) i32 @lxb_html_tree_active_formatting_reconstruct_elements(ptr noundef %0) local_unnamed_addr #5 {
  %2 = alloca %struct.lxb_html_token_t, align 8
  %3 = getelementptr inbounds nuw i8, ptr %0, i64 40
  %4 = load ptr, ptr %3, align 8, !tbaa !4
  %5 = getelementptr inbounds nuw i8, ptr %4, i64 16
  %6 = load i64, ptr %5, align 8, !tbaa !19
  %7 = icmp eq i64 %6, 0
  br i1 %7, label %39, label %8

8:                                                ; preds = %1
  %9 = load ptr, ptr %4, align 8, !tbaa !17
  %10 = add i64 %6, -1
  %11 = getelementptr inbounds nuw ptr, ptr %9, i64 %10
  %12 = load ptr, ptr %11, align 8, !tbaa !20
  %13 = icmp eq ptr %12, @lxb_html_tree_active_formatting_marker_static
  br i1 %13, label %39, label %14

14:                                               ; preds = %8
  %15 = tail call zeroext i1 @lxb_html_tree_open_elements_find_by_node_reverse(ptr noundef nonnull %0, ptr noundef %12, ptr noundef null) #8
  br i1 %15, label %39, label %.preheader

.preheader:                                       ; preds = %14, %21
  %.029 = phi i64 [ %17, %21 ], [ %10, %14 ]
  %.not = icmp eq i64 %.029, 0
  br i1 %.not, label %23, label %16

16:                                               ; preds = %.preheader
  %17 = add i64 %.029, -1
  %18 = getelementptr inbounds nuw ptr, ptr %9, i64 %17
  %19 = load ptr, ptr %18, align 8, !tbaa !20
  %20 = icmp eq ptr %19, @lxb_html_tree_active_formatting_marker_static
  br i1 %20, label %23, label %21

21:                                               ; preds = %16
  %22 = tail call zeroext i1 @lxb_html_tree_open_elements_find_by_node_reverse(ptr noundef nonnull %0, ptr noundef %19, ptr noundef null) #8
  br i1 %22, label %23, label %.preheader

23:                                               ; preds = %16, %21, %.preheader
  call void @llvm.lifetime.start.p0(i64 96, ptr nonnull %2) #8
  call void @llvm.memset.p0.i64(ptr noundef nonnull align 8 dereferenceable(96) %2, i8 0, i64 96, i1 false)
  %24 = load i64, ptr %5, align 8, !tbaa !19
  %25 = icmp ult i64 %.029, %24
  br i1 %25, label %.lr.ph, label %._crit_edge

.lr.ph:                                           ; preds = %23
  %26 = getelementptr inbounds nuw i8, ptr %2, i64 80
  %27 = getelementptr inbounds nuw i8, ptr %2, i64 64
  br label %28

28:                                               ; preds = %.lr.ph, %35
  %.23136 = phi i64 [ %.029, %.lr.ph ], [ %36, %35 ]
  %29 = getelementptr inbounds nuw ptr, ptr %9, i64 %.23136
  %30 = load ptr, ptr %29, align 8, !tbaa !20
  %31 = getelementptr inbounds nuw i8, ptr %30, i64 8
  %32 = load i64, ptr %31, align 8, !tbaa !22
  store i64 %32, ptr %26, align 8, !tbaa !26
  store ptr %30, ptr %27, align 8, !tbaa !30
  %33 = call ptr @lxb_html_tree_insert_foreign_element(ptr noundef nonnull %0, ptr noundef nonnull %2, i64 noundef 2) #8
  %34 = icmp eq ptr %33, null
  br i1 %34, label %._crit_edge, label %35

35:                                               ; preds = %28
  store ptr %33, ptr %29, align 8, !tbaa !20
  %36 = add nuw i64 %.23136, 1
  %37 = load i64, ptr %5, align 8, !tbaa !19
  %38 = icmp ult i64 %36, %37
  br i1 %38, label %28, label %._crit_edge

._crit_edge:                                      ; preds = %28, %35, %23
  %.2 = phi i32 [ 0, %23 ], [ 0, %35 ], [ 2, %28 ]
  call void @llvm.lifetime.end.p0(i64 96, ptr nonnull %2) #8
  br label %39

39:                                               ; preds = %._crit_edge, %14, %8, %1
  %.0 = phi i32 [ 0, %1 ], [ %.2, %._crit_edge ], [ 0, %14 ], [ 0, %8 ]
  ret i32 %.0
}